target datalayout = "e-m:e-p270:32:32-p271:32:32-p272:64:64-i64:64-i128:128-f80:128-n8:16:32:64-S128"
target triple = "x86_64-pc-linux-gnu"

%struct.Aig_Obj_t_ = type { %union.anon, ptr, ptr, i64, i32, i32, %union.anon.0 }
%union.anon = type { ptr }
%union.anon.0 = type { ptr }

; Function Attrs: inlinehint nounwind uwtable
define internal i32 @Aig_ObjFaninC1(ptr noundef %0) #4 {
  %2 = alloca ptr, align 8
  store ptr %0, ptr %2, align 8, !tbaa !24
  %3 = load ptr, ptr %2, align 8, !tbaa !24
  %4 = getelementptr inbounds nuw %struct.Aig_Obj_t_, ptr %3, i32 0, i32 2
  %5 = load ptr, ptr %4, align 8, !tbaa !40
  %6 = call i32 @Aig_IsComplement(ptr noundef %5)
  ret i32 %6
}

; Function Attrs: inlinehint nounwind uwtable
define internal i32 @Aig_ObjFaninC0(ptr noundef %0) #4 {
  %2 = alloca ptr, align 8
  store ptr %0, ptr %2, align 8, !tbaa !24
  %3 = load ptr, ptr %2, align 8, !tbaa !24
  %4 = getelementptr inbounds nuw %struct.Aig_Obj_t_, ptr %3, i32 0, i32 1
  %5 = load ptr, ptr %4, align 8, !tbaa !37
  %6 = call i32 @Aig_IsComplement(ptr noundef %5)
  ret i32 %6
}

; Function Attrs: inlinehint nounwind uwtable
define internal ptr @Aig_ObjFanin1(ptr noundef %0) #4 {
  %2 = alloca ptr, align 8
  store ptr %0, ptr %2, align 8, !tbaa !24
  %3 = load ptr, ptr %2, align 8, !tbaa !24
  %4 = getelementptr inbounds nuw %struct.Aig_Obj_t_, ptr %3, i32 0, i32 2
  %5 = load ptr, ptr %4, align 8, !tbaa !40
  %6 = call ptr @Aig_Regular(ptr noundef %5)
  ret ptr %6
}

; Function Attrs: inlinehint nounwind uwtable
define internal ptr @Aig_ObjFanin0(ptr noundef %0) #4 {
  %2 = alloca ptr, align 8
  store ptr %0, ptr %2, align 8, !tbaa !24
  %3 = load ptr, ptr %2, align 8, !tbaa !24
  %4 = getelementptr inbounds nuw %struct.Aig_Obj_t_, ptr %3, i32 0, i32 1
  %5 = load ptr, ptr %4, align 8, !tbaa !37
  %6 = call ptr @Aig_Regular(ptr noundef %5)
  ret ptr %6
}

; Function Attrs: inlinehint nounwind uwtable
define internal i32 @Aig_ObjIsAnd(ptr noundef %0) #4 {
  %2 = alloca ptr, align 8
  store ptr %0, ptr %2, align 8, !tbaa !24
  %3 = load ptr, ptr %2, align 8, !tbaa !24
  %4 = getelementptr inbounds nuw %struct.Aig_Obj_t_, ptr %3, i32 0, i32 3
  %5 = load i64, ptr %4, align 8
  %6 = and i64 %5, 7
  %7 = trunc i64 %6 to i32
  %8 = icmp eq i32 %7, 5
  %9 = zext i1 %8 to i32
  ret i32 %9
}

; Function Attrs: inlinehint nounwind uwtable
define internal ptr @Aig_Regular(ptr noundef %0) #4 {
  %2 = alloca ptr, align 8
  store ptr %0, ptr %2, align 8, !tbaa !24
  %3 = load ptr, ptr %2, align 8, !tbaa !24
  %4 = ptrtoint ptr %3 to i64
  %5 = and i64 %4, -2
  %6 = inttoptr i64 %5 to ptr
  ret ptr %6
}

; Function Attrs: inlinehint nounwind uwtable
define internal i32 @Aig_IsComplement(ptr noundef %0) #4 {
  %2 = alloca ptr, align 8
  store ptr %0, ptr %2, align 8, !tbaa !24
  %3 = load ptr, ptr %2, align 8, !tbaa !24
  %4 = ptrtoint ptr %3 to i64
  %5 = and i64 %4, 1
  %6 = trunc i64 %5 to i32
  ret i32 %6
}

; Function Attrs: inlinehint nounwind uwtable
define internal ptr @Aig_ObjChild1(ptr noundef %0) #4 {
  %2 = alloca ptr, align 8
  store ptr %0, ptr %2, align 8, !tbaa !24
  %3 = load ptr, ptr %2, align 8, !tbaa !24
  %4 = getelementptr inbounds nuw %struct.Aig_Obj_t_, ptr %3, i32 0, i32 2
  %5 = load ptr, ptr %4, align 8, !tbaa !40
  ret ptr %5
}

; Function Attrs: inlinehint nounwind uwtable
define internal ptr @Aig_ObjChild0(ptr noundef %0) #4 {
  %2 = alloca ptr, align 8
  store ptr %0, ptr %2, align 8, !tbaa !24
  %3 = load ptr, ptr %2, align 8, !tbaa !24
  %4 = getelementptr inbounds nuw %struct.Aig_Obj_t_, ptr %3, i32 0, i32 1
  %5 = load ptr, ptr %4, align 8, !tbaa !37
  ret ptr %5
}

; Function Attrs: inlinehint nounwind uwtable
define internal i32 @Aig_ObjIsExor(ptr noundef %0) #4 {
  %2 = alloca ptr, align 8
  store ptr %0, ptr %2, align 8, !tbaa !24
  %3 = load ptr, ptr %2, align 8, !tbaa !24
  %4 = getelementptr inbounds nuw %struct.Aig_Obj_t_, ptr %3, i32 0, i32 3
  %5 = load i64, ptr %4, align 8
  %6 = and i64 %5, 7
  %7 = trunc i64 %6 to i32
  %8 = icmp eq i32 %7, 6
  %9 = zext i1 %8 to i32
  ret i32 %9
}

; Function Attrs: inlinehint nounwind uwtable
define internal i32 @Aig_ObjIsNode(ptr noundef %0) #4 {
  %2 = alloca ptr, align 8
  store ptr %0, ptr %2, align 8, !tbaa !24
  %3 = load ptr, ptr %2, align 8, !tbaa !24
  %4 = getelementptr inbounds nuw %struct.Aig_Obj_t_, ptr %3, i32 0, i32 3
  %5 = load i64, ptr %4, align 8
  %6 = and i64 %5, 7
  %7 = trunc i64 %6 to i32
  %8 = icmp eq i32 %7, 5
  br i1 %8, label %16, label %9

9:                                                ; preds = %1
  %10 = load ptr, ptr %2, align 8, !tbaa !24
  %11 = getelementptr inbounds nuw %struct.Aig_Obj_t_, ptr %10, i32 0, i32 3
  %12 = load i64, ptr %11, align 8
  %13 = and i64 %12, 7
  %14 = trunc i64 %13 to i32
  %15 = icmp eq i32 %14, 6
  br label %16

16:                                               ; preds = %9, %1
  %17 = phi i1 [ true, %1 ], [ %15, %9 ]
  %18 = zext i1 %17 to i32
  ret i32 %18
}

; Function Attrs: nounwind uwtable
define i32 @Aig_ObjRecognizeExor(ptr noundef %0, ptr noundef %1, ptr noundef %2) #0 {
  %4 = alloca i32, align 4
  %5 = alloca ptr, align 8
  %6 = alloca ptr, align 8
  %7 = alloca ptr, align 8
  %8 = alloca ptr, align 8
  %9 = alloca ptr, align 8
  %10 = alloca i32, align 4
  store ptr %0, ptr %5, align 8, !tbaa !24
  store ptr %1, ptr %6, align 8, !tbaa !46
  store ptr %2, ptr %7, align 8, !tbaa !46
  call void @llvm.lifetime.start.p0(i64 8, ptr %8) #10
  call void @llvm.lifetime.start.p0(i64 8, ptr %9) #10
  %11 = load ptr, ptr %5, align 8, !tbaa !24
  %12 = call i32 @Aig_ObjIsNode(ptr noundef %11)
  %13 = icmp ne i32 %12, 0
  br i1 %13, label %15, label %14

14:                                               ; preds = %3
  store i32 0, ptr %4, align 4
  store i32 1, ptr %10, align 4
  br label %85

15:                                               ; preds = %3
  %16 = load ptr, ptr %5, align 8, !tbaa !24
  %17 = call i32 @Aig_ObjIsExor(ptr noundef %16)
  %18 = icmp ne i32 %17, 0
  br i1 %18, label %19, label %26

19:                                               ; preds = %15
  %20 = load ptr, ptr %5, align 8, !tbaa !24
  %21 = call ptr @Aig_ObjChild0(ptr noundef %20)
  %22 = load ptr, ptr %6, align 8, !tbaa !46
  store ptr %21, ptr %22, align 8, !tbaa !24
  %23 = load ptr, ptr %5, align 8, !tbaa !24
  %24 = call ptr @Aig_ObjChild1(ptr noundef %23)
  %25 = load ptr, ptr %7, align 8, !tbaa !46
  store ptr %24, ptr %25, align 8, !tbaa !24
  store i32 1, ptr %4, align 4
  store i32 1, ptr %10, align 4
  br label %85

26:                                               ; preds = %15
  %27 = load ptr, ptr %5, align 8, !tbaa !24
  %28 = call ptr @Aig_ObjChild0(ptr noundef %27)
  store ptr %28, ptr %8, align 8, !tbaa !24
  %29 = load ptr, ptr %5, align 8, !tbaa !24
  %30 = call ptr @Aig_ObjChild1(ptr noundef %29)
  store ptr %30, ptr %9, align 8, !tbaa !24
  %31 = load ptr, ptr %8, align 8, !tbaa !24
  %32 = call i32 @Aig_IsComplement(ptr noundef %31)
  %33 = icmp ne i32 %32, 0
  br i1 %33, label %34, label %38

34:                                               ; preds = %26
  %35 = load ptr, ptr %9, align 8, !tbaa !24
  %36 = call i32 @Aig_IsComplement(ptr noundef %35)
  %37 = icmp ne i32 %36, 0
  br i1 %37, label %39, label %38

38:                                               ; preds = %34, %26
  store i32 0, ptr %4, align 4
  store i32 1, ptr %10, align 4
  br label %85

39:                                               ; preds = %34
  %40 = load ptr, ptr %8, align 8, !tbaa !24
  %41 = call ptr @Aig_Regular(ptr noundef %40)
  store ptr %41, ptr %8, align 8, !tbaa !24
  %42 = load ptr, ptr %9, align 8, !tbaa !24
  %43 = call ptr @Aig_Regular(ptr noundef %42)
  store ptr %43, ptr %9, align 8, !tbaa !24
  %44 = load ptr, ptr %8, align 8, !tbaa !24
  %45 = call i32 @Aig_ObjIsAnd(ptr noundef %44)
  %46 = icmp ne i32 %45, 0
  br i1 %46, label %47, label %51

47:                                               ; preds = %39
  %48 = load ptr, ptr %9, align 8, !tbaa !24
  %49 = call i32 @Aig_ObjIsAnd(ptr noundef %48)
  %50 = icmp ne i32 %49, 0
  br i1 %50, label %52, label %51

51:                                               ; preds = %47, %39
  store i32 0, ptr %4, align 4
  store i32 1, ptr %10, align 4
  br label %85

52:                                               ; preds = %47
  %53 = load ptr, ptr %8, align 8, !tbaa !24
  %54 = call ptr @Aig_ObjFanin0(ptr noundef %53)
  %55 = load ptr, ptr %9, align 8, !tbaa !24
  %56 = call ptr @Aig_ObjFanin0(ptr noundef %55)
  %57 = icmp ne ptr %54, %56
  br i1 %57, label %64, label %58

58:                                               ; preds = %52
  %59 = load ptr, ptr %8, align 8, !tbaa !24
  %60 = call ptr @Aig_ObjFanin1(ptr noundef %59)
  %61 = load ptr, ptr %9, align 8, !tbaa !24
  %62 = call ptr @Aig_ObjFanin1(ptr noundef %61)
  %63 = icmp ne ptr %60, %62
  br i1 %63, label %64, label %65

64:                                               ; preds = %58, %52
  store i32 0, ptr %4, align 4
  store i32 1, ptr %10, align 4
  br label %85

65:                                               ; preds = %58
  %66 = load ptr, ptr %8, align 8, !tbaa !24
  %67 = call i32 @Aig_ObjFaninC0(ptr noundef %66)
  %68 = load ptr, ptr %9, align 8, !tbaa !24
  %69 = call i32 @Aig_ObjFaninC0(ptr noundef %68)
  %70 = icmp eq i32 %67, %69
  br i1 %70, label %77, label %71

71:                                               ; preds = %65
  %72 = load ptr, ptr %8, align 8, !tbaa !24
  %73 = call i32 @Aig_ObjFaninC1(ptr noundef %72)
  %74 = load ptr, ptr %9, align 8, !tbaa !24
  %75 = call i32 @Aig_ObjFaninC1(ptr noundef %74)
  %76 = icmp eq i32 %73, %75
  br i1 %76, label %77, label %78

77:                                               ; preds = %71, %65
  store i32 0, ptr %4, align 4
  store i32 1, ptr %10, align 4
  br label %85

78:                                               ; preds = %71
  %79 = load ptr, ptr %8, align 8, !tbaa !24
  %80 = call ptr @Aig_ObjChild0(ptr noundef %79)
  %81 = load ptr, ptr %6, align 8, !tbaa !46
  store ptr %80, ptr %81, align 8, !tbaa !24
  %82 = load ptr, ptr %8, align 8, !tbaa !24
  %83 = call ptr @Aig_ObjChild1(ptr noundef %82)
  %84 = load ptr, ptr %7, align 8, !tbaa !46
  store ptr %83, ptr %84, align 8, !tbaa !24
  store i32 1, ptr %4, align 4
  store i32 1, ptr %10, align 4
  br label %85

85:                                               ; preds = %78, %77, %64, %51, %38, %19, %14
  call void @llvm.lifetime.end.p0(i64 8, ptr %9) #10
  call void @llvm.lifetime.end.p0(i64 8, ptr %8) #10
  %86 = load i32, ptr %4, align 4
  ret i32 %86
}