; Function Attrs: mustprogress nofree norecurse nosync nounwind willreturn memory(read, argmem: readwrite, inaccessiblemem: none) uwtable
define range(i32 0, 2) i32 @Aig_ObjRecognizeExor(ptr noundef readonly captures(none) %0, ptr noundef writeonly captures(none) %1, ptr noundef writeonly captures(none) %2) local_unnamed_addr #9 {
  %4 = getelementptr i8, ptr %0, i64 24
  %.val48 = load i64, ptr %4, align 8
  %5 = trunc i64 %.val48 to i32
  %6 = and i32 %5, 7
  %7 = add nsw i32 %6, -7
  %narrow.i = icmp ult i32 %7, -2
  br i1 %narrow.i, label %45, label %8

8:                                                ; preds = %3
  %9 = and i64 %.val48, 7
  %.not = icmp eq i64 %9, 6
  %10 = getelementptr i8, ptr %0, i64 8
  %.val40 = load ptr, ptr %10, align 8, !tbaa !32
  br i1 %.not, label %11, label %13

11:                                               ; preds = %8
  store ptr %.val40, ptr %1, align 8, !tbaa !43
  %12 = getelementptr i8, ptr %0, i64 16
  br label %.sink.split

13:                                               ; preds = %8
  %14 = ptrtoint ptr %.val40 to i64
  %15 = and i64 %14, 1
  %.not27 = icmp eq i64 %15, 0
  br i1 %.not27, label %45, label %16

16:                                               ; preds = %13
  %17 = getelementptr i8, ptr %0, i64 16
  %.val42 = load ptr, ptr %17, align 8, !tbaa !35
  %18 = ptrtoint ptr %.val42 to i64
  %19 = and i64 %18, 1
  %.not28 = icmp eq i64 %19, 0
  br i1 %.not28, label %45, label %20

20:                                               ; preds = %16
  %21 = and i64 %14, -2
  %22 = inttoptr i64 %21 to ptr
  %23 = and i64 %18, -2
  %24 = inttoptr i64 %23 to ptr
  %25 = getelementptr i8, ptr %22, i64 24
  %.val37 = load i64, ptr %25, align 8
  %26 = and i64 %.val37, 7
  %.not50 = icmp eq i64 %26, 5
  br i1 %.not50, label %27, label %45

27:                                               ; preds = %20
  %28 = getelementptr i8, ptr %24, i64 24
  %.val36 = load i64, ptr %28, align 8
  %29 = and i64 %.val36, 7
  %.not51 = icmp eq i64 %29, 5
  br i1 %.not51, label %30, label %45

30:                                               ; preds = %27
  %31 = getelementptr i8, ptr %22, i64 8
  %.val33 = load ptr, ptr %31, align 8, !tbaa !32
  %32 = ptrtoint ptr %.val33 to i64
  %33 = getelementptr i8, ptr %24, i64 8
  %.val = load ptr, ptr %33, align 8, !tbaa !32
  %34 = ptrtoint ptr %.val to i64
  %35 = xor i64 %34, %32
  %.not31 = icmp ult i64 %35, 2
  br i1 %.not31, label %36, label %45

36:                                               ; preds = %30
  %37 = getelementptr i8, ptr %22, i64 16
  %.val35 = load ptr, ptr %37, align 8, !tbaa !35
  %38 = ptrtoint ptr %.val35 to i64
  %39 = getelementptr i8, ptr %24, i64 16
  %.val34 = load ptr, ptr %39, align 8, !tbaa !35
  %40 = ptrtoint ptr %.val34 to i64
  %41 = xor i64 %40, %38
  %.not32 = icmp ugt i64 %41, 1
  %42 = icmp eq ptr %.val, %.val33
  %or.cond = or i1 %.not32, %42
  %43 = icmp eq ptr %.val34, %.val35
  %or.cond52 = or i1 %or.cond, %43
  br i1 %or.cond52, label %45, label %44

44:                                               ; preds = %36
  store ptr %.val33, ptr %1, align 8, !tbaa !43
  br label %.sink.split

.sink.split:                                      ; preds = %11, %44
  %.val41.sink.in = phi ptr [ %37, %44 ], [ %12, %11 ]
  %.val41.sink = load ptr, ptr %.val41.sink.in, align 8, !tbaa !35
  store ptr %.val41.sink, ptr %2, align 8, !tbaa !43
  br label %45

45:                                               ; preds = %.sink.split, %30, %36, %20, %27, %13, %16, %3
  %.0 = phi i32 [ 0, %3 ], [ 0, %16 ], [ 0, %13 ], [ 0, %27 ], [ 0, %20 ], [ 0, %36 ], [ 0, %30 ], [ 1, %.sink.split ]
  ret i32 %.0
}